; Function Attrs: nofree norecurse nosync nounwind memory(read, argmem: readwrite, inaccessiblemem: none) uwtable
define hidden range(i32 -100, 1) i32 @mbedtls_asn1_get_len(ptr noundef captures(none) %0, ptr noundef %1, ptr noundef writeonly captures(none) %2) local_unnamed_addr #0 {
  %4 = load ptr, ptr %0, align 8, !tbaa !3
  %5 = ptrtoint ptr %1 to i64
  %6 = ptrtoint ptr %4 to i64
  %7 = sub i64 %5, %6
  %8 = icmp slt i64 %7, 1
  br i1 %8, label %.thread, label %9

9:                                                ; preds = %3
  %10 = load i8, ptr %4, align 1, !tbaa !8
  %11 = icmp sgt i8 %10, -1
  br i1 %11, label %12, label %16

12:                                               ; preds = %9
  %13 = getelementptr inbounds nuw i8, ptr %4, i64 1
  store ptr %13, ptr %0, align 8, !tbaa !3
  %14 = load i8, ptr %4, align 1, !tbaa !8
  %15 = zext i8 %14 to i64
  store i64 %15, ptr %2, align 8, !tbaa !9
  br label %.loopexit

16:                                               ; preds = %9
  %17 = and i8 %10, 127
  %18 = zext nneg i8 %17 to i32
  %19 = add nsw i8 %17, -5
  %or.cond = icmp ult i8 %19, -4
  br i1 %or.cond, label %.thread, label %20

20:                                               ; preds = %16
  %21 = zext nneg i8 %17 to i64
  %.not = icmp samesign ugt i64 %7, %21
  br i1 %.not, label %.lr.ph.preheader, label %.thread

.lr.ph.preheader:                                 ; preds = %20
  store i64 0, ptr %2, align 8, !tbaa !9
  %storemerge32 = getelementptr inbounds nuw i8, ptr %4, i64 1
  store ptr %storemerge32, ptr %0, align 8, !tbaa !3
  br label %.lr.ph

.lr.ph:                                           ; preds = %.lr.ph.preheader, %.lr.ph
  %storemerge36 = phi ptr [ %storemerge, %.lr.ph ], [ %storemerge32, %.lr.ph.preheader ]
  %.02335 = phi i32 [ %22, %.lr.ph ], [ %18, %.lr.ph.preheader ]
  %storemerge3134 = phi i64 [ %26, %.lr.ph ], [ 0, %.lr.ph.preheader ]
  %22 = add nsw i32 %.02335, -1
  %23 = shl i64 %storemerge3134, 8
  %24 = load i8, ptr %storemerge36, align 1, !tbaa !8
  %25 = zext i8 %24 to i64
  %26 = or disjoint i64 %23, %25
  store i64 %26, ptr %2, align 8, !tbaa !9
  %storemerge = getelementptr inbounds nuw i8, ptr %storemerge36, i64 1
  store ptr %storemerge, ptr %0, align 8, !tbaa !3
  %.not27 = icmp eq i32 %22, 0
  br i1 %.not27, label %.loopexit, label %.lr.ph, !llvm.loop !11

.loopexit:                                        ; preds = %.lr.ph, %12
  %27 = phi ptr [ %13, %12 ], [ %storemerge, %.lr.ph ]
  %28 = phi i64 [ %15, %12 ], [ %26, %.lr.ph ]
  %29 = ptrtoint ptr %27 to i64
  %30 = sub i64 %5, %29
  %31 = icmp ugt i64 %28, %30
  %. = select i1 %31, i32 -96, i32 0
  br label %.thread

.thread:                                          ; preds = %20, %16, %.loopexit, %3
  %.024 = phi i32 [ -96, %3 ], [ %., %.loopexit ], [ -96, %20 ], [ -100, %16 ]
  ret i32 %.024
}